#include <math.h>
#include <stdio.h>
#include <stdlib.h>
#include <string.h>

int main()
{
	int n,i,a[100],y;
	scanf("%d",&n);
	y=0;
	for(i=1;i<=n;i++)
		a[i]=i;
	for(i=1;i<=n;i++)
	{
		if(a[i]%7!=0&&(a[i]%10!=7&&a[i]/10!=7))
			y=y+a[i]*a[i];
	}
		printf("%d\n",y);
		return 0;
}                           
